EXPORTS 
	??_R0?AU?$big_any_policy@Uempty_any@anyimpl@cvflann@@@anyimpl@cvflann@@@8 	 DATA
	??_R0?AU?$big_any_policy@V?$basic_string@DU?$char_traits@D@std@@V?$allocator@D@2@@std@@@anyimpl@cvflann@@@8 	 DATA
	??_R0?AU?$big_any_policy@W4flann_algorithm_t@cvflann@@@anyimpl@cvflann@@@8 	 DATA
	??_R0?AU?$big_any_policy@W4flann_centers_init_t@cvflann@@@anyimpl@cvflann@@@8 	 DATA
	??_R0?AU?$small_any_policy@H@anyimpl@cvflann@@@8 	 DATA
	??_R0?AU?$small_any_policy@M@anyimpl@cvflann@@@8 	 DATA
	??_R0?AU?$small_any_policy@PEBD@anyimpl@cvflann@@@8 	 DATA
	??_R0?AU?$small_any_policy@_N@anyimpl@cvflann@@@8 	 DATA
	??_R0?AU?$typed_base_any_policy@H@anyimpl@cvflann@@@8 	 DATA
	??_R0?AU?$typed_base_any_policy@M@anyimpl@cvflann@@@8 	 DATA
	??_R0?AU?$typed_base_any_policy@PEBD@anyimpl@cvflann@@@8 	 DATA
	??_R0?AU?$typed_base_any_policy@Uempty_any@anyimpl@cvflann@@@anyimpl@cvflann@@@8 	 DATA
	??_R0?AU?$typed_base_any_policy@V?$basic_string@DU?$char_traits@D@std@@V?$allocator@D@2@@std@@@anyimpl@cvflann@@@8 	 DATA
	??_R0?AU?$typed_base_any_policy@W4flann_algorithm_t@cvflann@@@anyimpl@cvflann@@@8 	 DATA
	??_R0?AU?$typed_base_any_policy@W4flann_centers_init_t@cvflann@@@anyimpl@cvflann@@@8 	 DATA
	??_R0?AU?$typed_base_any_policy@_N@anyimpl@cvflann@@@8 	 DATA
	??_R0?AUbase_any_policy@anyimpl@cvflann@@@8 	 DATA
	??_R0?AUempty_any@anyimpl@cvflann@@@8 	 DATA
	??_R0?AV?$basic_string@DU?$char_traits@D@std@@V?$allocator@D@2@@std@@@8 	 DATA
	??_R0?AVbad_alloc@std@@@8 	 DATA
	??_R0?AVbad_array_new_length@std@@@8 	 DATA
	??_R0?AVexception@std@@@8 	 DATA
	??_R0?AW4flann_algorithm_t@cvflann@@@8 	 DATA
	??_R0?AW4flann_centers_init_t@cvflann@@@8 	 DATA
	??_R0H@8 	 DATA
	??_R0M@8 	 DATA
	??_R0PEBD@8 	 DATA
	??_R0_N@8 	 DATA
	?finder@@3VCascadeClassifier@cv@@A 	 DATA
	?net_caffe@@3VNet@dnn4_v20201117@dnn@cv@@A 	 DATA
	?net_tensor@@3VNet@dnn4_v20201117@dnn@cv@@A 	 DATA
	?policy@?$SinglePolicy@H@anyimpl@cvflann@@0U?$small_any_policy@H@23@A 	 DATA
	?policy@?$SinglePolicy@M@anyimpl@cvflann@@0U?$small_any_policy@M@23@A 	 DATA
	?policy@?$SinglePolicy@PEBD@anyimpl@cvflann@@0U?$small_any_policy@PEBD@23@A 	 DATA
	?policy@?$SinglePolicy@Uempty_any@anyimpl@cvflann@@@anyimpl@cvflann@@0U?$big_any_policy@Uempty_any@anyimpl@cvflann@@@23@A 	 DATA
	?policy@?$SinglePolicy@V?$basic_string@DU?$char_traits@D@std@@V?$allocator@D@2@@std@@@anyimpl@cvflann@@0U?$big_any_policy@V?$basic_string@DU?$char_traits@D@std@@V?$allocator@D@2@@std@@@23@A 	 DATA
	?policy@?$SinglePolicy@W4flann_algorithm_t@cvflann@@@anyimpl@cvflann@@0U?$big_any_policy@W4flann_algorithm_t@cvflann@@@23@A 	 DATA
	?policy@?$SinglePolicy@W4flann_centers_init_t@cvflann@@@anyimpl@cvflann@@0U?$big_any_policy@W4flann_centers_init_t@cvflann@@@23@A 	 DATA
	?policy@?$SinglePolicy@_N@anyimpl@cvflann@@0U?$small_any_policy@_N@23@A 	 DATA
	?size@@3HA 	 DATA
	??$?0$$V@?$_Compressed_pair@V?$allocator@D@std@@V?$_String_val@U?$_Simple_types@D@std@@@2@$00@std@@QEAA@U_Zero_then_variadic_args_t@1@@Z
	??$?0$$V@?$_Compressed_pair@V?$allocator@V?$Rect_@H@cv@@@std@@V?$_Vector_val@U?$_Simple_types@V?$Rect_@H@cv@@@std@@@2@$00@std@@QEAA@U_Zero_then_variadic_args_t@1@@Z
	??$?0D@?$allocator@U_Container_proxy@std@@@std@@QEAA@AEBV?$allocator@D@1@@Z
	??$?0V?$Rect_@H@cv@@@?$allocator@U_Container_proxy@std@@@std@@QEAA@AEBV?$allocator@V?$Rect_@H@cv@@@1@@Z
	??$?0V?$allocator@D@std@@$$V@?$_Compressed_pair@V?$allocator@D@std@@V?$_String_val@U?$_Simple_types@D@std@@@2@$00@std@@QEAA@U_One_then_variadic_args_t@1@$$QEAV?$allocator@D@1@@Z
	??$?0V?$allocator@V?$Rect_@H@cv@@@std@@PEAV?$Rect_@H@cv@@PEAV23@PEAV23@@?$_Compressed_pair@V?$allocator@V?$Rect_@H@cv@@@std@@V?$_Vector_val@U?$_Simple_types@V?$Rect_@H@cv@@@std@@@2@$00@std@@QEAA@U_One_then_variadic_args_t@1@$$QEAV?$allocator@V?$Rect_@H@cv@@@1@$$QEAPEAV?$Rect_@H@cv@@22@Z
	??$?6U?$char_traits@D@std@@@std@@YAAEAV?$basic_ostream@DU?$char_traits@D@std@@@0@AEAV10@PEBD@Z
	??$_Alloc_proxy@V?$allocator@U_Container_proxy@std@@@std@@@_Container_base12@std@@QEAAX$$QEAV?$allocator@U_Container_proxy@std@@@1@@Z
	??$_Allocate@$0BA@U_Default_allocate_traits@std@@$0A@@std@@YAPEAX_K@Z
	??$_Allocate_manually_vector_aligned@U_Default_allocate_traits@std@@@std@@YAPEAX_K@Z
	??$_Construct_in_place@PEADAEBQEAD@std@@YAXAEAPEADAEBQEAD@Z
	??$_Construct_in_place@U_Container_proxy@std@@PEAU_Container_base12@2@@std@@YAXAEAU_Container_proxy@0@$$QEAPEAU_Container_base12@0@@Z
	??$_Convert_size@_K@std@@YA_K_K@Z
	??$_Deallocate@$0BA@$0A@@std@@YAXPEAX_K@Z
	??$_Deallocate_plain@V?$allocator@U_Container_proxy@std@@@std@@@std@@YAXAEAV?$allocator@U_Container_proxy@std@@@0@QEAU_Container_proxy@0@@Z
	??$_Delete_plain_internal@V?$allocator@U_Container_proxy@std@@@std@@@std@@YAXAEAV?$allocator@U_Container_proxy@std@@@0@QEAU_Container_proxy@0@@Z
	??$_Destroy_in_place@PEAD@std@@YAXAEAPEAD@Z
	??$_Destroy_range@V?$allocator@V?$Rect_@H@cv@@@std@@@std@@YAXPEAV?$Rect_@H@cv@@QEAV12@AEAV?$allocator@V?$Rect_@H@cv@@@0@@Z
	??$_Emplace_back@V?$Rect_@H@cv@@@?$_Uninitialized_backout_al@V?$allocator@V?$Rect_@H@cv@@@std@@@std@@QEAAX$$QEAV?$Rect_@H@cv@@@Z
	??$_Emplace_back_with_unused_capacity@V?$Rect_@H@cv@@@?$vector@V?$Rect_@H@cv@@V?$allocator@V?$Rect_@H@cv@@@std@@@std@@AEAAX$$QEAV?$Rect_@H@cv@@@Z
	??$_Emplace_reallocate@V?$Rect_@H@cv@@@?$vector@V?$Rect_@H@cv@@V?$allocator@V?$Rect_@H@cv@@@std@@@std@@QEAAPEAV?$Rect_@H@cv@@QEAV23@$$QEAV23@@Z
	??$_Get_size_of_n@$00@std@@YA_K_K@Z
	??$_Get_size_of_n@$0BA@@std@@YA_K_K@Z
	??$_Get_unwrapped@AEBQEAV?$Rect_@H@cv@@@std@@YAPEAV?$Rect_@H@cv@@AEBQEAV12@@Z
	??$_Getvals@_W@?$time_get@DV?$istreambuf_iterator@DU?$char_traits@D@std@@@std@@@std@@IEAAX_WAEBV_Locinfo@1@@Z
	??$_Getvals@_W@?$time_get@_WV?$istreambuf_iterator@_WU?$char_traits@_W@std@@@std@@@std@@IEAAX_WAEBV_Locinfo@1@@Z
	??$_Maklocstr@D@std@@YAPEADPEBDPEADAEBU_Cvtvec@@@Z
	??$_Maklocstr@_W@std@@YAPEA_WPEBDPEA_WAEBU_Cvtvec@@@Z
	??$_Pocca@V?$allocator@D@std@@@std@@YAXAEAV?$allocator@D@0@AEBV10@@Z
	??$_Reallocate_for@V<lambda_66f57f934f28d61049862f64df852ff0>@@PEBD@?$basic_string@DU?$char_traits@D@std@@V?$allocator@D@2@@std@@AEAAAEAV01@_KV<lambda_66f57f934f28d61049862f64df852ff0>@@PEBD@Z
	??$_Unfancy@D@std@@YAPEADPEAD@Z
	??$_Unfancy@U_Container_proxy@std@@@std@@YAPEAU_Container_proxy@0@PEAU10@@Z
	??$_Unfancy@V?$Rect_@H@cv@@@std@@YAPEAV?$Rect_@H@cv@@PEAV12@@Z
	??$_Uninitialized_move@PEAV?$Rect_@H@cv@@V?$allocator@V?$Rect_@H@cv@@@std@@@std@@YAPEAV?$Rect_@H@cv@@QEAV12@0PEAV12@AEAV?$allocator@V?$Rect_@H@cv@@@0@@Z
	??$_Voidify_iter@PEAPEAD@std@@YAPEAXPEAPEAD@Z
	??$_Voidify_iter@PEAU_Container_proxy@std@@@std@@YAPEAXPEAU_Container_proxy@0@@Z
	??$addressof@$$CBV?$basic_string@DU?$char_traits@D@std@@V?$allocator@D@2@@std@@@std@@YAPEBV?$basic_string@DU?$char_traits@D@std@@V?$allocator@D@2@@0@AEBV10@@Z
	??$addressof@PEAD@std@@YAPEAPEADAEAPEAD@Z
	??$addressof@U_Container_base12@std@@@std@@YAPEAU_Container_base12@0@AEAU10@@Z
	??$addressof@U_Container_proxy@std@@@std@@YAPEAU_Container_proxy@0@AEAU10@@Z
	??$at@M@Mat@cv@@QEBAAEBMHH@Z
	??$construct@V?$Rect_@H@cv@@V12@@?$_Default_allocator_traits@V?$allocator@V?$Rect_@H@cv@@@std@@@std@@SAXAEAV?$allocator@V?$Rect_@H@cv@@@1@QEAV?$Rect_@H@cv@@$$QEAV34@@Z
	??$emplace_back@V?$Rect_@H@cv@@@?$vector@V?$Rect_@H@cv@@V?$allocator@V?$Rect_@H@cv@@@std@@@std@@QEAAX$$QEAV?$Rect_@H@cv@@@Z
	??$exchange@PEAU_Container_proxy@std@@$$T@std@@YAPEAU_Container_proxy@0@AEAPEAU10@$$QEA$$T@Z
	??$exchange@PEAV?$Rect_@H@cv@@$$T@std@@YAPEAV?$Rect_@H@cv@@AEAPEAV12@$$QEA$$T@Z
	??$forward@AEBQEAD@std@@YAAEBQEADAEBQEAD@Z
	??$forward@PEAU_Container_base12@std@@@std@@YA$$QEAPEAU_Container_base12@0@AEAPEAU10@@Z
	??$forward@PEAV?$Rect_@H@cv@@@std@@YA$$QEAPEAV?$Rect_@H@cv@@AEAPEAV12@@Z
	??$forward@V?$Rect_@H@cv@@@std@@YA$$QEAV?$Rect_@H@cv@@AEAV12@@Z
	??$forward@V?$allocator@D@std@@@std@@YA$$QEAV?$allocator@D@0@AEAV10@@Z
	??$forward@V?$allocator@V?$Rect_@H@cv@@@std@@@std@@YA$$QEAV?$allocator@V?$Rect_@H@cv@@@0@AEAV10@@Z
	??$max@H@std@@YAAEBHAEBH0@Z
	??$max@_K@std@@YAAEB_KAEB_K0@Z
	??$min@H@std@@YAAEBHAEBH0@Z
	??$min@_K@std@@YAAEB_KAEB_K0@Z
	??$move@AEAH@std@@YA$$QEAHAEAH@Z
	??$move@AEAV?$Rect_@H@cv@@@std@@YA$$QEAV?$Rect_@H@cv@@AEAV12@@Z
	??$move@AEAV?$allocator@V?$Rect_@H@cv@@@std@@@std@@YA$$QEAV?$allocator@V?$Rect_@H@cv@@@0@AEAV10@@Z
	??$ptr@M@Mat@cv@@QEAAPEAMH@Z
	??0?$Matx@N$03$00@cv@@QEAA@XZ
	??0?$Point_@H@cv@@QEAA@HH@Z
	??0?$Rect_@H@cv@@QEAA@$$QEAV01@@Z
	??0?$Rect_@H@cv@@QEAA@AEBV?$Point_@H@1@0@Z
	??0?$Scalar_@N@cv@@QEAA@NNNN@Z
	??0?$Scalar_@N@cv@@QEAA@XZ
	??0?$Size_@H@cv@@QEAA@HH@Z
	??0?$Size_@H@cv@@QEAA@XZ
	??0?$Vec@N$03@cv@@QEAA@XZ
	??0?$_Container_proxy_ptr12@V?$allocator@U_Container_proxy@std@@@std@@@std@@QEAA@AEAV?$allocator@U_Container_proxy@std@@@1@AEAU_Container_base12@1@@Z
	??0?$_String_val@U?$_Simple_types@D@std@@@std@@QEAA@XZ
	??0?$_Uninitialized_backout_al@V?$allocator@V?$Rect_@H@cv@@@std@@@std@@QEAA@PEAV?$Rect_@H@cv@@AEAV?$allocator@V?$Rect_@H@cv@@@1@@Z
	??0?$_Vector_val@U?$_Simple_types@V?$Rect_@H@cv@@@std@@@std@@QEAA@PEAV?$Rect_@H@cv@@00@Z
	??0?$_Vector_val@U?$_Simple_types@V?$Rect_@H@cv@@@std@@@std@@QEAA@XZ
	??0?$allocator@D@std@@QEAA@XZ
	??0?$allocator@V?$Rect_@H@cv@@@std@@QEAA@XZ
	??0?$basic_string@DU?$char_traits@D@std@@V?$allocator@D@2@@std@@QEAA@AEBV01@@Z
	??0?$basic_string@DU?$char_traits@D@std@@V?$allocator@D@2@@std@@QEAA@QEBD@Z
	??0?$vector@V?$Rect_@H@cv@@V?$allocator@V?$Rect_@H@cv@@@std@@@std@@QEAA@$$QEAV01@@Z
	??0?$vector@V?$Rect_@H@cv@@V?$allocator@V?$Rect_@H@cv@@@std@@@std@@QEAA@XZ
	??0_Bxty@?$_String_val@U?$_Simple_types@D@std@@@std@@QEAA@XZ
	??0_Container_base12@std@@QEAA@XZ
	??0_Container_proxy@std@@QEAA@PEAU_Container_base12@1@@Z
	??0_InputArray@debug_build_guard@cv@@QEAA@AEBVMat@2@@Z
	??0_InputArray@debug_build_guard@cv@@QEAA@XZ
	??0_OutputArray@debug_build_guard@cv@@QEAA@AEAVMat@2@@Z
	??0_Sentry_base@?$basic_ostream@DU?$char_traits@D@std@@@std@@QEAA@AEAV12@@Z
	??0bad_alloc@std@@AEAA@QEBD@Z
	??0bad_alloc@std@@QEAA@AEBV01@@Z
	??0bad_array_new_length@std@@QEAA@AEBV01@@Z
	??0bad_array_new_length@std@@QEAA@XZ
	??0exception@std@@QEAA@AEBV01@@Z
	??0exception@std@@QEAA@QEBDH@Z
	??0sentry@?$basic_ostream@DU?$char_traits@D@std@@@std@@QEAA@AEAV12@@Z
	??1?$_Compressed_pair@V?$allocator@D@std@@V?$_String_val@U?$_Simple_types@D@std@@@2@$00@std@@QEAA@XZ
	??1?$_Container_proxy_ptr12@V?$allocator@U_Container_proxy@std@@@std@@@std@@QEAA@XZ
	??1?$_String_val@U?$_Simple_types@D@std@@@std@@QEAA@XZ
	??1?$_Uninitialized_backout_al@V?$allocator@V?$Rect_@H@cv@@@std@@@std@@QEAA@XZ
	??1?$basic_string@DU?$char_traits@D@std@@V?$allocator@D@2@@std@@QEAA@XZ
	??1?$big_any_policy@Uempty_any@anyimpl@cvflann@@@anyimpl@cvflann@@UEAA@XZ
	??1?$big_any_policy@V?$basic_string@DU?$char_traits@D@std@@V?$allocator@D@2@@std@@@anyimpl@cvflann@@UEAA@XZ
	??1?$big_any_policy@W4flann_algorithm_t@cvflann@@@anyimpl@cvflann@@UEAA@XZ
	??1?$big_any_policy@W4flann_centers_init_t@cvflann@@@anyimpl@cvflann@@UEAA@XZ
	??1?$small_any_policy@H@anyimpl@cvflann@@UEAA@XZ
	??1?$small_any_policy@M@anyimpl@cvflann@@UEAA@XZ
	??1?$small_any_policy@PEBD@anyimpl@cvflann@@UEAA@XZ
	??1?$small_any_policy@_N@anyimpl@cvflann@@UEAA@XZ
	??1?$typed_base_any_policy@H@anyimpl@cvflann@@UEAA@XZ
	??1?$typed_base_any_policy@M@anyimpl@cvflann@@UEAA@XZ
	??1?$typed_base_any_policy@PEBD@anyimpl@cvflann@@UEAA@XZ
	??1?$typed_base_any_policy@Uempty_any@anyimpl@cvflann@@@anyimpl@cvflann@@UEAA@XZ
	??1?$typed_base_any_policy@V?$basic_string@DU?$char_traits@D@std@@V?$allocator@D@2@@std@@@anyimpl@cvflann@@UEAA@XZ
	??1?$typed_base_any_policy@W4flann_algorithm_t@cvflann@@@anyimpl@cvflann@@UEAA@XZ
	??1?$typed_base_any_policy@W4flann_centers_init_t@cvflann@@@anyimpl@cvflann@@UEAA@XZ
	??1?$typed_base_any_policy@_N@anyimpl@cvflann@@UEAA@XZ
	??1?$vector@V?$Rect_@H@cv@@V?$allocator@V?$Rect_@H@cv@@@std@@@std@@QEAA@XZ
	??1_Bxty@?$_String_val@U?$_Simple_types@D@std@@@std@@QEAA@XZ
	??1_InputArray@debug_build_guard@cv@@QEAA@XZ
	??1_OutputArray@debug_build_guard@cv@@QEAA@XZ
	??1_Sentry_base@?$basic_ostream@DU?$char_traits@D@std@@@std@@QEAA@XZ
	??1bad_alloc@std@@UEAA@XZ
	??1bad_array_new_length@std@@UEAA@XZ
	??1base_any_policy@anyimpl@cvflann@@UEAA@XZ
	??1exception@std@@UEAA@XZ
	??1sentry@?$basic_ostream@DU?$char_traits@D@std@@@std@@QEAA@XZ
	??2@YAPEAX_KPEAX@Z
	??4?$basic_string@DU?$char_traits@D@std@@V?$allocator@D@2@@std@@QEAAAEAV01@AEBV01@@Z
	??6anyimpl@cvflann@@YAAEAV?$basic_ostream@DU?$char_traits@D@std@@@std@@AEAV23@AEBUempty_any@01@@Z
	??AMatSize@cv@@QEAAAEAHH@Z
	??Bsentry@?$basic_ostream@DU?$char_traits@D@std@@@std@@QEBA_NXZ
	??R<lambda_66f57f934f28d61049862f64df852ff0>@@QEBAXQEAD_KQEBD@Z
	?_Adjust_manually_vector_aligned@std@@YAXAEAPEAXAEA_K@Z
	?_Allocate@_Default_allocate_traits@std@@SAPEAX_K@Z
	?_Calculate_growth@?$basic_string@DU?$char_traits@D@std@@V?$allocator@D@2@@std@@AEBA_K_K@Z
	?_Calculate_growth@?$basic_string@DU?$char_traits@D@std@@V?$allocator@D@2@@std@@CA_K_K00@Z
	?_Calculate_growth@?$vector@V?$Rect_@H@cv@@V?$allocator@V?$Rect_@H@cv@@@std@@@std@@AEBA_K_K@Z
	?_Change_array@?$vector@V?$Rect_@H@cv@@V?$allocator@V?$Rect_@H@cv@@@std@@@std@@AEAAXQEAV?$Rect_@H@cv@@_K1@Z
	?_Construct_lv_contents@?$basic_string@DU?$char_traits@D@std@@V?$allocator@D@2@@std@@AEAAXAEBV12@@Z
	?_Copy_assign@?$basic_string@DU?$char_traits@D@std@@V?$allocator@D@2@@std@@AEAAXAEBV12@U?$integral_constant@_N$0A@@2@@Z
	?_Destroy@?$vector@V?$Rect_@H@cv@@V?$allocator@V?$Rect_@H@cv@@@std@@@std@@AEAAXPEAV?$Rect_@H@cv@@0@Z
	?_Get_first@?$_Compressed_pair@V?$allocator@D@std@@V?$_String_val@U?$_Simple_types@D@std@@@2@$00@std@@QEAAAEAV?$allocator@D@2@XZ
	?_Get_first@?$_Compressed_pair@V?$allocator@D@std@@V?$_String_val@U?$_Simple_types@D@std@@@2@$00@std@@QEBAAEBV?$allocator@D@2@XZ
	?_Get_first@?$_Compressed_pair@V?$allocator@V?$Rect_@H@cv@@@std@@V?$_Vector_val@U?$_Simple_types@V?$Rect_@H@cv@@@std@@@2@$00@std@@QEAAAEAV?$allocator@V?$Rect_@H@cv@@@2@XZ
	?_Get_first@?$_Compressed_pair@V?$allocator@V?$Rect_@H@cv@@@std@@V?$_Vector_val@U?$_Simple_types@V?$Rect_@H@cv@@@std@@@2@$00@std@@QEBAAEBV?$allocator@V?$Rect_@H@cv@@@2@XZ
	?_Getal@?$basic_string@DU?$char_traits@D@std@@V?$allocator@D@2@@std@@AEAAAEAV?$allocator@D@2@XZ
	?_Getal@?$basic_string@DU?$char_traits@D@std@@V?$allocator@D@2@@std@@AEBAAEBV?$allocator@D@2@XZ
	?_Getal@?$vector@V?$Rect_@H@cv@@V?$allocator@V?$Rect_@H@cv@@@std@@@std@@AEAAAEAV?$allocator@V?$Rect_@H@cv@@@2@XZ
	?_Getal@?$vector@V?$Rect_@H@cv@@V?$allocator@V?$Rect_@H@cv@@@std@@@std@@AEBAAEBV?$allocator@V?$Rect_@H@cv@@@2@XZ
	?_Large_string_engaged@?$_String_val@U?$_Simple_types@D@std@@@std@@QEBA_NXZ
	?_Maklocwcs@std@@YAPEA_WPEB_W@Z
	?_Myptr@?$_String_val@U?$_Simple_types@D@std@@@std@@QEAAPEADXZ
	?_Myptr@?$_String_val@U?$_Simple_types@D@std@@@std@@QEBAPEBDXZ
	?_Orphan_all@_Container_base12@std@@QEAAXXZ
	?_Orphan_range@?$vector@V?$Rect_@H@cv@@V?$allocator@V?$Rect_@H@cv@@@std@@@std@@AEBAXPEAV?$Rect_@H@cv@@0@Z
	?_Release@?$_Uninitialized_backout_al@V?$allocator@V?$Rect_@H@cv@@@std@@@std@@QEAAPEAV?$Rect_@H@cv@@XZ
	?_Release@_Basic_container_proxy_ptr12@std@@QEAAXXZ
	?_Swap_proxy_and_iterators@_Container_base12@std@@QEAAXAEAU12@@Z
	?_Throw_bad_array_new_length@std@@YAXXZ
	?_Tidy@?$vector@V?$Rect_@H@cv@@V?$allocator@V?$Rect_@H@cv@@@std@@@std@@AEAAXXZ
	?_Tidy_deallocate@?$basic_string@DU?$char_traits@D@std@@V?$allocator@D@2@@std@@AEAAXXZ
	?_Tidy_init@?$basic_string@DU?$char_traits@D@std@@V?$allocator@D@2@@std@@AEAAXXZ
	?_Umove@?$vector@V?$Rect_@H@cv@@V?$allocator@V?$Rect_@H@cv@@@std@@@std@@AEAAPEAV?$Rect_@H@cv@@PEAV34@00@Z
	?_Umove_if_noexcept1@?$vector@V?$Rect_@H@cv@@V?$allocator@V?$Rect_@H@cv@@@std@@@std@@AEAAXPEAV?$Rect_@H@cv@@00U?$integral_constant@_N$00@2@@Z
	?_Umove_if_noexcept@?$vector@V?$Rect_@H@cv@@V?$allocator@V?$Rect_@H@cv@@@std@@@std@@AEAAXPEAV?$Rect_@H@cv@@00@Z
	?_Xlen_string@std@@YAXXZ
	?_Xlength@?$vector@V?$Rect_@H@cv@@V?$allocator@V?$Rect_@H@cv@@@std@@@std@@CAXXZ
	?__empty_global_delete@@YAXPEAX@Z
	?__empty_global_delete@@YAXPEAX_K@Z
	?allocate@?$allocator@D@std@@QEAAPEAD_K@Z
	?allocate@?$allocator@U_Container_proxy@std@@@std@@QEAAPEAU_Container_proxy@2@_K@Z
	?allocate@?$allocator@V?$Rect_@H@cv@@@std@@QEAAPEAV?$Rect_@H@cv@@_K@Z
	?assign@?$_Narrow_char_traits@DH@std@@SAXAEADAEBD@Z
	?assign@?$basic_string@DU?$char_traits@D@std@@V?$allocator@D@2@@std@@QEAAAEAV12@QEBD@Z
	?assign@?$basic_string@DU?$char_traits@D@std@@V?$allocator@D@2@@std@@QEAAAEAV12@QEBD_K@Z
	?c_str@?$basic_string@DU?$char_traits@D@std@@V?$allocator@D@2@@std@@QEBAPEBDXZ
	?capacity@?$vector@V?$Rect_@H@cv@@V?$allocator@V?$Rect_@H@cv@@@std@@@std@@QEBA_KXZ
	?channels@Mat@cv@@QEBAHXZ
	?clone@?$big_any_policy@Uempty_any@anyimpl@cvflann@@@anyimpl@cvflann@@UEAAXPEBQEAXPEAPEAX@Z
	?clone@?$big_any_policy@V?$basic_string@DU?$char_traits@D@std@@V?$allocator@D@2@@std@@@anyimpl@cvflann@@UEAAXPEBQEAXPEAPEAX@Z
	?clone@?$big_any_policy@W4flann_algorithm_t@cvflann@@@anyimpl@cvflann@@UEAAXPEBQEAXPEAPEAX@Z
	?clone@?$big_any_policy@W4flann_centers_init_t@cvflann@@@anyimpl@cvflann@@UEAAXPEBQEAXPEAPEAX@Z
	?clone@?$small_any_policy@H@anyimpl@cvflann@@UEAAXPEBQEAXPEAPEAX@Z
	?clone@?$small_any_policy@M@anyimpl@cvflann@@UEAAXPEBQEAXPEAPEAX@Z
	?clone@?$small_any_policy@PEBD@anyimpl@cvflann@@UEAAXPEBQEAXPEAPEAX@Z
	?clone@?$small_any_policy@_N@anyimpl@cvflann@@UEAAXPEBQEAXPEAPEAX@Z
	?convert_to_rect@@YA?AV?$vector@V?$Rect_@H@cv@@V?$allocator@V?$Rect_@H@cv@@@std@@@std@@AEBVMat@cv@@HHM@Z
	?copy@?$_Char_traits@DH@std@@SAPEADQEADQEBD_K@Z
	?copy_from_value@?$big_any_policy@Uempty_any@anyimpl@cvflann@@@anyimpl@cvflann@@UEAAXPEBXPEAPEAX@Z
	?copy_from_value@?$big_any_policy@V?$basic_string@DU?$char_traits@D@std@@V?$allocator@D@2@@std@@@anyimpl@cvflann@@UEAAXPEBXPEAPEAX@Z
	?copy_from_value@?$big_any_policy@W4flann_algorithm_t@cvflann@@@anyimpl@cvflann@@UEAAXPEBXPEAPEAX@Z
	?copy_from_value@?$big_any_policy@W4flann_centers_init_t@cvflann@@@anyimpl@cvflann@@UEAAXPEBXPEAPEAX@Z
	?copy_from_value@?$small_any_policy@H@anyimpl@cvflann@@UEAAXPEBXPEAPEAX@Z
	?copy_from_value@?$small_any_policy@M@anyimpl@cvflann@@UEAAXPEBXPEAPEAX@Z
	?copy_from_value@?$small_any_policy@PEBD@anyimpl@cvflann@@UEAAXPEBXPEAPEAX@Z
	?copy_from_value@?$small_any_policy@_N@anyimpl@cvflann@@UEAAXPEBXPEAPEAX@Z
	?deallocate@?$_Default_allocator_traits@V?$allocator@U_Container_proxy@std@@@std@@@std@@SAXAEAV?$allocator@U_Container_proxy@std@@@2@QEAU_Container_proxy@2@_K@Z
	?deallocate@?$allocator@D@std@@QEAAXQEAD_K@Z
	?deallocate@?$allocator@V?$Rect_@H@cv@@@std@@QEAAXQEAV?$Rect_@H@cv@@_K@Z
	?dims@MatSize@cv@@QEBAHXZ
	?elemSize1@Mat@cv@@QEBA_KXZ
	?eof@?$_Narrow_char_traits@DH@std@@SAHXZ
	?eq_int_type@?$_Narrow_char_traits@DH@std@@SA_NAEBH0@Z
	?findFace@@YA?AV?$vector@V?$Rect_@H@cv@@V?$allocator@V?$Rect_@H@cv@@@std@@@std@@V?$basic_string@DU?$char_traits@D@std@@V?$allocator@D@2@@2@H@Z
	?findFace_dnn_caffee@@YA?AV?$vector@V?$Rect_@H@cv@@V?$allocator@V?$Rect_@H@cv@@@std@@@std@@V?$basic_string@DU?$char_traits@D@std@@V?$allocator@D@2@@2@H@Z
	?findFace_dnn_tensor@@YA?AV?$vector@V?$Rect_@H@cv@@V?$allocator@V?$Rect_@H@cv@@@std@@@std@@V?$basic_string@DU?$char_traits@D@std@@V?$allocator@D@2@@2@H@Z
	?get_size@?$typed_base_any_policy@H@anyimpl@cvflann@@UEAA_KXZ
	?get_size@?$typed_base_any_policy@M@anyimpl@cvflann@@UEAA_KXZ
	?get_size@?$typed_base_any_policy@PEBD@anyimpl@cvflann@@UEAA_KXZ
	?get_size@?$typed_base_any_policy@Uempty_any@anyimpl@cvflann@@@anyimpl@cvflann@@UEAA_KXZ
	?get_size@?$typed_base_any_policy@V?$basic_string@DU?$char_traits@D@std@@V?$allocator@D@2@@std@@@anyimpl@cvflann@@UEAA_KXZ
	?get_size@?$typed_base_any_policy@W4flann_algorithm_t@cvflann@@@anyimpl@cvflann@@UEAA_KXZ
	?get_size@?$typed_base_any_policy@W4flann_centers_init_t@cvflann@@@anyimpl@cvflann@@UEAA_KXZ
	?get_size@?$typed_base_any_policy@_N@anyimpl@cvflann@@UEAA_KXZ
	?get_value@?$big_any_policy@Uempty_any@anyimpl@cvflann@@@anyimpl@cvflann@@UEAAPEAXPEAPEAX@Z
	?get_value@?$big_any_policy@Uempty_any@anyimpl@cvflann@@@anyimpl@cvflann@@UEAAPEBXPEBQEAX@Z
	?get_value@?$big_any_policy@V?$basic_string@DU?$char_traits@D@std@@V?$allocator@D@2@@std@@@anyimpl@cvflann@@UEAAPEAXPEAPEAX@Z
	?get_value@?$big_any_policy@V?$basic_string@DU?$char_traits@D@std@@V?$allocator@D@2@@std@@@anyimpl@cvflann@@UEAAPEBXPEBQEAX@Z
	?get_value@?$big_any_policy@W4flann_algorithm_t@cvflann@@@anyimpl@cvflann@@UEAAPEAXPEAPEAX@Z
	?get_value@?$big_any_policy@W4flann_algorithm_t@cvflann@@@anyimpl@cvflann@@UEAAPEBXPEBQEAX@Z
	?get_value@?$big_any_policy@W4flann_centers_init_t@cvflann@@@anyimpl@cvflann@@UEAAPEAXPEAPEAX@Z
	?get_value@?$big_any_policy@W4flann_centers_init_t@cvflann@@@anyimpl@cvflann@@UEAAPEBXPEBQEAX@Z
	?get_value@?$small_any_policy@H@anyimpl@cvflann@@UEAAPEAXPEAPEAX@Z
	?get_value@?$small_any_policy@H@anyimpl@cvflann@@UEAAPEBXPEBQEAX@Z
	?get_value@?$small_any_policy@M@anyimpl@cvflann@@UEAAPEAXPEAPEAX@Z
	?get_value@?$small_any_policy@M@anyimpl@cvflann@@UEAAPEBXPEBQEAX@Z
	?get_value@?$small_any_policy@PEBD@anyimpl@cvflann@@UEAAPEAXPEAPEAX@Z
	?get_value@?$small_any_policy@PEBD@anyimpl@cvflann@@UEAAPEBXPEBQEAX@Z
	?get_value@?$small_any_policy@_N@anyimpl@cvflann@@UEAAPEAXPEAPEAX@Z
	?get_value@?$small_any_policy@_N@anyimpl@cvflann@@UEAAPEBXPEBQEAX@Z
	?init@_InputArray@debug_build_guard@cv@@IEAAXHPEBX@Z
	?length@?$_Narrow_char_traits@DH@std@@SA_KQEBD@Z
	?max@?$numeric_limits@_J@std@@SA_JXZ
	?max_size@?$_Default_allocator_traits@V?$allocator@D@std@@@std@@SA_KAEBV?$allocator@D@2@@Z
	?max_size@?$_Default_allocator_traits@V?$allocator@V?$Rect_@H@cv@@@std@@@std@@SA_KAEBV?$allocator@V?$Rect_@H@cv@@@2@@Z
	?max_size@?$basic_string@DU?$char_traits@D@std@@V?$allocator@D@2@@std@@QEBA_KXZ
	?max_size@?$vector@V?$Rect_@H@cv@@V?$allocator@V?$Rect_@H@cv@@@std@@@std@@QEBA_KXZ
	?move@?$_Char_traits@DH@std@@SAPEADQEADQEBD_K@Z
	?move@?$big_any_policy@Uempty_any@anyimpl@cvflann@@@anyimpl@cvflann@@UEAAXPEBQEAXPEAPEAX@Z
	?move@?$big_any_policy@V?$basic_string@DU?$char_traits@D@std@@V?$allocator@D@2@@std@@@anyimpl@cvflann@@UEAAXPEBQEAXPEAPEAX@Z
	?move@?$big_any_policy@W4flann_algorithm_t@cvflann@@@anyimpl@cvflann@@UEAAXPEBQEAXPEAPEAX@Z
	?move@?$big_any_policy@W4flann_centers_init_t@cvflann@@@anyimpl@cvflann@@UEAAXPEBQEAXPEAPEAX@Z
	?move@?$small_any_policy@H@anyimpl@cvflann@@UEAAXPEBQEAXPEAPEAX@Z
	?move@?$small_any_policy@M@anyimpl@cvflann@@UEAAXPEBQEAXPEAPEAX@Z
	?move@?$small_any_policy@PEBD@anyimpl@cvflann@@UEAAXPEBQEAXPEAPEAX@Z
	?move@?$small_any_policy@_N@anyimpl@cvflann@@UEAAXPEBQEAXPEAPEAX@Z
	?print@?$big_any_policy@Uempty_any@anyimpl@cvflann@@@anyimpl@cvflann@@UEAAXAEAV?$basic_ostream@DU?$char_traits@D@std@@@std@@PEBQEAX@Z
	?print@?$big_any_policy@V?$basic_string@DU?$char_traits@D@std@@V?$allocator@D@2@@std@@@anyimpl@cvflann@@UEAAXAEAV?$basic_ostream@DU?$char_traits@D@std@@@std@@PEBQEAX@Z
	?print@?$big_any_policy@W4flann_algorithm_t@cvflann@@@anyimpl@cvflann@@UEAAXAEAV?$basic_ostream@DU?$char_traits@D@std@@@std@@PEBQEAX@Z
	?print@?$big_any_policy@W4flann_centers_init_t@cvflann@@@anyimpl@cvflann@@UEAAXAEAV?$basic_ostream@DU?$char_traits@D@std@@@std@@PEBQEAX@Z
	?print@?$small_any_policy@H@anyimpl@cvflann@@UEAAXAEAV?$basic_ostream@DU?$char_traits@D@std@@@std@@PEBQEAX@Z
	?print@?$small_any_policy@M@anyimpl@cvflann@@UEAAXAEAV?$basic_ostream@DU?$char_traits@D@std@@@std@@PEBQEAX@Z
	?print@?$small_any_policy@PEBD@anyimpl@cvflann@@UEAAXAEAV?$basic_ostream@DU?$char_traits@D@std@@@std@@PEBQEAX@Z
	?print@?$small_any_policy@_N@anyimpl@cvflann@@UEAAXAEAV?$basic_ostream@DU?$char_traits@D@std@@@std@@PEBQEAX@Z
	?push_back@?$vector@V?$Rect_@H@cv@@V?$allocator@V?$Rect_@H@cv@@@std@@@std@@QEAAX$$QEAV?$Rect_@H@cv@@@Z
	?select_on_container_copy_construction@?$_Default_allocator_traits@V?$allocator@D@std@@@std@@SA?AV?$allocator@D@2@AEBV32@@Z
	?static_delete@?$big_any_policy@Uempty_any@anyimpl@cvflann@@@anyimpl@cvflann@@UEAAXPEAPEAX@Z
	?static_delete@?$big_any_policy@V?$basic_string@DU?$char_traits@D@std@@V?$allocator@D@2@@std@@@anyimpl@cvflann@@UEAAXPEAPEAX@Z
	?static_delete@?$big_any_policy@W4flann_algorithm_t@cvflann@@@anyimpl@cvflann@@UEAAXPEAPEAX@Z
	?static_delete@?$big_any_policy@W4flann_centers_init_t@cvflann@@@anyimpl@cvflann@@UEAAXPEAPEAX@Z
	?static_delete@?$small_any_policy@H@anyimpl@cvflann@@UEAAXPEAPEAX@Z
	?static_delete@?$small_any_policy@M@anyimpl@cvflann@@UEAAXPEAPEAX@Z
	?static_delete@?$small_any_policy@PEBD@anyimpl@cvflann@@UEAAXPEAPEAX@Z
	?static_delete@?$small_any_policy@_N@anyimpl@cvflann@@UEAAXPEAPEAX@Z
	?type@?$typed_base_any_policy@H@anyimpl@cvflann@@UEAAAEBVtype_info@@XZ
	?type@?$typed_base_any_policy@M@anyimpl@cvflann@@UEAAAEBVtype_info@@XZ
	?type@?$typed_base_any_policy@PEBD@anyimpl@cvflann@@UEAAAEBVtype_info@@XZ
	?type@?$typed_base_any_policy@Uempty_any@anyimpl@cvflann@@@anyimpl@cvflann@@UEAAAEBVtype_info@@XZ
	?type@?$typed_base_any_policy@V?$basic_string@DU?$char_traits@D@std@@V?$allocator@D@2@@std@@@anyimpl@cvflann@@UEAAAEBVtype_info@@XZ
	?type@?$typed_base_any_policy@W4flann_algorithm_t@cvflann@@@anyimpl@cvflann@@UEAAAEBVtype_info@@XZ
	?type@?$typed_base_any_policy@W4flann_centers_init_t@cvflann@@@anyimpl@cvflann@@UEAAAEBVtype_info@@XZ
	?type@?$typed_base_any_policy@_N@anyimpl@cvflann@@UEAAAEBVtype_info@@XZ
	?what@exception@std@@UEBAPEBDXZ
	wmemcpy
